target datalayout = "e-m:e-p270:32:32-p271:32:32-p272:64:64-i64:64-i128:128-f80:128-n8:16:32:64-S128"
target triple = "x86_64-pc-linux-gnu"

%struct._mq_parm_t = type { i32, i32, i32, i32, i32, i32, i32, i32, i32, i32, i32, i32, i32, i8, i8, i8, %struct._mq_ccsid_t, %struct._mq_ccsid_t, %struct._mq_ccsid_t, %struct._mq_ccsid_t, %struct._mq_ccsid_t, %struct._mq_ccsid_t, %struct._mq_ccsid_t, [8 x i8], i32, i32, i32 }
%struct._mq_ccsid_t = type { i32, i32 }

@hf_mq_fopa_StructID = internal global i32 0, align 4
@hf_mq_fopa_version = internal global i32 0, align 4
@hf_mq_fopa_length = internal global i32 0, align 4
@hf_mq_fopa_DefPersistence = internal global i32 0, align 4
@hf_mq_fopa_DefPutRespType = internal global i32 0, align 4
@hf_mq_fopa_DefReadAhead = internal global i32 0, align 4
@hf_mq_fopa_PropertyControl = internal global i32 0, align 4
@hf_mq_fopa_Unknown = internal global i32 0, align 4
@ett_mq_fopa = internal global i32 0, align 4
@.str.1895 = private unnamed_addr constant [5 x i8] c"FOPA\00", align 1

; Function Attrs: null_pointer_is_valid sspstrong uwtable
define internal i32 @dissect_mq_fopa(ptr noundef %0, ptr noundef %1, i32 noundef %2, ptr noundef %3) #0 {
  %5 = alloca ptr, align 8
  %6 = alloca ptr, align 8
  %7 = alloca i32, align 4
  %8 = alloca ptr, align 8
  %9 = alloca i32, align 4
  %10 = alloca i32, align 4
  %11 = alloca ptr, align 8
  store ptr %0, ptr %5, align 8
  store ptr %1, ptr %6, align 8
  store i32 %2, ptr %7, align 4
  store ptr %3, ptr %8, align 8
  call void @llvm.lifetime.start.p0(i64 4, ptr %9) #9
  store i32 0, ptr %9, align 4
  call void @llvm.lifetime.start.p0(i64 4, ptr %10) #9
  store i32 0, ptr %10, align 4
  %12 = load ptr, ptr %5, align 8
  %13 = load i32, ptr %7, align 4
  %14 = call i32 @tvb_reported_length_remaining(ptr noundef %12, i32 noundef %13)
  %15 = icmp sge i32 %14, 4
  br i1 %15, label %16, label %20

16:                                               ; preds = %4
  %17 = load ptr, ptr %5, align 8
  %18 = load i32, ptr %7, align 4
  %19 = call i32 @tvb_get_ntohl(ptr noundef %17, i32 noundef %18)
  br label %21

20:                                               ; preds = %4
  br label %21

21:                                               ; preds = %20, %16
  %22 = phi i32 [ %19, %16 ], [ 0, %20 ]
  %23 = load ptr, ptr %8, align 8
  %24 = getelementptr inbounds nuw %struct._mq_parm_t, ptr %23, i32 0, i32 2
  store i32 %22, ptr %24, align 4
  %25 = load ptr, ptr %8, align 8
  %26 = getelementptr inbounds nuw %struct._mq_parm_t, ptr %25, i32 0, i32 2
  %27 = load i32, ptr %26, align 4
  %28 = icmp eq i32 %27, 1179603009
  br i1 %28, label %34, label %29

29:                                               ; preds = %21
  %30 = load ptr, ptr %8, align 8
  %31 = getelementptr inbounds nuw %struct._mq_parm_t, ptr %30, i32 0, i32 2
  %32 = load i32, ptr %31, align 4
  %33 = icmp eq i32 %32, -958998591
  br i1 %33, label %34, label %145

34:                                               ; preds = %29, %21
  %35 = load ptr, ptr %5, align 8
  %36 = load i32, ptr %7, align 4
  %37 = add i32 %36, 4
  %38 = load ptr, ptr %8, align 8
  %39 = getelementptr inbounds nuw %struct._mq_parm_t, ptr %38, i32 0, i32 3
  %40 = load i32, ptr %39, align 4
  %41 = call i32 @tvb_get_uint32(ptr noundef %35, i32 noundef %37, i32 noundef %40)
  store i32 %41, ptr %10, align 4
  %42 = load ptr, ptr %5, align 8
  %43 = load i32, ptr %7, align 4
  %44 = add i32 %43, 8
  %45 = load ptr, ptr %8, align 8
  %46 = getelementptr inbounds nuw %struct._mq_parm_t, ptr %45, i32 0, i32 3
  %47 = load i32, ptr %46, align 4
  %48 = call i32 @tvb_get_uint32(ptr noundef %42, i32 noundef %44, i32 noundef %47)
  store i32 %48, ptr %9, align 4
  %49 = load i32, ptr %9, align 4
  %50 = icmp ne i32 %49, 0
  br i1 %50, label %51, label %144

51:                                               ; preds = %34
  %52 = load ptr, ptr %5, align 8
  %53 = load i32, ptr %7, align 4
  %54 = call i32 @tvb_reported_length_remaining(ptr noundef %52, i32 noundef %53)
  %55 = load i32, ptr %9, align 4
  %56 = icmp sge i32 %54, %55
  br i1 %56, label %57, label %144

57:                                               ; preds = %51
  call void @llvm.lifetime.start.p0(i64 8, ptr %11) #9
  %58 = load ptr, ptr %6, align 8
  %59 = load ptr, ptr %5, align 8
  %60 = load i32, ptr %7, align 4
  %61 = load i32, ptr %9, align 4
  %62 = load i32, ptr @ett_mq_fopa, align 4
  %63 = call ptr @proto_tree_add_subtree(ptr noundef %58, ptr noundef %59, i32 noundef %60, i32 noundef %61, i32 noundef %62, ptr noundef null, ptr noundef @.str.1895)
  store ptr %63, ptr %11, align 8
  %64 = load ptr, ptr %11, align 8
  %65 = load i32, ptr @hf_mq_fopa_StructID, align 4
  %66 = load ptr, ptr %5, align 8
  %67 = load i32, ptr %7, align 4
  %68 = load ptr, ptr %8, align 8
  %69 = getelementptr inbounds nuw %struct._mq_parm_t, ptr %68, i32 0, i32 4
  %70 = load i32, ptr %69, align 4
  %71 = call ptr @proto_tree_add_item(ptr noundef %64, i32 noundef %65, ptr noundef %66, i32 noundef %67, i32 noundef 4, i32 noundef %70)
  %72 = load ptr, ptr %11, align 8
  %73 = load i32, ptr @hf_mq_fopa_version, align 4
  %74 = load ptr, ptr %5, align 8
  %75 = load i32, ptr %7, align 4
  %76 = add i32 %75, 4
  %77 = load ptr, ptr %8, align 8
  %78 = getelementptr inbounds nuw %struct._mq_parm_t, ptr %77, i32 0, i32 3
  %79 = load i32, ptr %78, align 4
  %80 = call ptr @proto_tree_add_item(ptr noundef %72, i32 noundef %73, ptr noundef %74, i32 noundef %76, i32 noundef 4, i32 noundef %79)
  %81 = load ptr, ptr %11, align 8
  %82 = load i32, ptr @hf_mq_fopa_length, align 4
  %83 = load ptr, ptr %5, align 8
  %84 = load i32, ptr %7, align 4
  %85 = add i32 %84, 8
  %86 = load ptr, ptr %8, align 8
  %87 = getelementptr inbounds nuw %struct._mq_parm_t, ptr %86, i32 0, i32 3
  %88 = load i32, ptr %87, align 4
  %89 = call ptr @proto_tree_add_item(ptr noundef %81, i32 noundef %82, ptr noundef %83, i32 noundef %85, i32 noundef 4, i32 noundef %88)
  %90 = load ptr, ptr %11, align 8
  %91 = load i32, ptr @hf_mq_fopa_DefPersistence, align 4
  %92 = load ptr, ptr %5, align 8
  %93 = load i32, ptr %7, align 4
  %94 = add i32 %93, 12
  %95 = load ptr, ptr %8, align 8
  %96 = getelementptr inbounds nuw %struct._mq_parm_t, ptr %95, i32 0, i32 3
  %97 = load i32, ptr %96, align 4
  %98 = call ptr @proto_tree_add_item(ptr noundef %90, i32 noundef %91, ptr noundef %92, i32 noundef %94, i32 noundef 4, i32 noundef %97)
  %99 = load ptr, ptr %11, align 8
  %100 = load i32, ptr @hf_mq_fopa_DefPutRespType, align 4
  %101 = load ptr, ptr %5, align 8
  %102 = load i32, ptr %7, align 4
  %103 = add i32 %102, 16
  %104 = load ptr, ptr %8, align 8
  %105 = getelementptr inbounds nuw %struct._mq_parm_t, ptr %104, i32 0, i32 3
  %106 = load i32, ptr %105, align 4
  %107 = call ptr @proto_tree_add_item(ptr noundef %99, i32 noundef %100, ptr noundef %101, i32 noundef %103, i32 noundef 4, i32 noundef %106)
  %108 = load ptr, ptr %11, align 8
  %109 = load i32, ptr @hf_mq_fopa_DefReadAhead, align 4
  %110 = load ptr, ptr %5, align 8
  %111 = load i32, ptr %7, align 4
  %112 = add i32 %111, 20
  %113 = load ptr, ptr %8, align 8
  %114 = getelementptr inbounds nuw %struct._mq_parm_t, ptr %113, i32 0, i32 3
  %115 = load i32, ptr %114, align 4
  %116 = call ptr @proto_tree_add_item(ptr noundef %108, i32 noundef %109, ptr noundef %110, i32 noundef %112, i32 noundef 4, i32 noundef %115)
  %117 = load ptr, ptr %11, align 8
  %118 = load i32, ptr @hf_mq_fopa_PropertyControl, align 4
  %119 = load ptr, ptr %5, align 8
  %120 = load i32, ptr %7, align 4
  %121 = add i32 %120, 24
  %122 = load ptr, ptr %8, align 8
  %123 = getelementptr inbounds nuw %struct._mq_parm_t, ptr %122, i32 0, i32 3
  %124 = load i32, ptr %123, align 4
  %125 = call ptr @proto_tree_add_item(ptr noundef %117, i32 noundef %118, ptr noundef %119, i32 noundef %121, i32 noundef 4, i32 noundef %124)
  %126 = load i32, ptr %10, align 4
  %127 = icmp sgt i32 %126, 1
  br i1 %127, label %128, label %143

128:                                              ; preds = %57
  %129 = load i32, ptr %9, align 4
  %130 = icmp sgt i32 %129, 28
  br i1 %130, label %131, label %143

131:                                              ; preds = %128
  %132 = load ptr, ptr %11, align 8
  %133 = load i32, ptr @hf_mq_fopa_Unknown, align 4
  %134 = load ptr, ptr %5, align 8
  %135 = load i32, ptr %7, align 4
  %136 = add i32 %135, 28
  %137 = load i32, ptr %9, align 4
  %138 = sub i32 %137, 28
  %139 = load ptr, ptr %8, align 8
  %140 = getelementptr inbounds nuw %struct._mq_parm_t, ptr %139, i32 0, i32 3
  %141 = load i32, ptr %140, align 4
  %142 = call ptr @proto_tree_add_item(ptr noundef %132, i32 noundef %133, ptr noundef %134, i32 noundef %136, i32 noundef %138, i32 noundef %141)
  br label %143

143:                                              ; preds = %131, %128, %57
  call void @llvm.lifetime.end.p0(i64 8, ptr %11) #9
  br label %144

144:                                              ; preds = %143, %51, %34
  br label %145

145:                                              ; preds = %144, %29
  %146 = load i32, ptr %9, align 4
  call void @llvm.lifetime.end.p0(i64 4, ptr %10) #9
  call void @llvm.lifetime.end.p0(i64 4, ptr %9) #9
  ret i32 %146
}