; Function Attrs: null_pointer_is_valid sspstrong uwtable
define internal fastcc i32 @dissect_mq_fopa(ptr noundef %0, ptr noundef %1, i32 noundef %2, ptr noundef captures(none) initializes((8, 12)) %3) unnamed_addr #0 {
  %5 = tail call i32 @tvb_reported_length_remaining(ptr noundef %0, i32 noundef %2)
  %6 = icmp sgt i32 %5, 3
  br i1 %6, label %8, label %.thread

.thread:                                          ; preds = %4
  %7 = getelementptr inbounds nuw i8, ptr %3, i64 8
  store i32 0, ptr %7, align 4
  br label %58

8:                                                ; preds = %4
  %9 = tail call i32 @tvb_get_ntohl(ptr noundef %0, i32 noundef %2)
  %10 = getelementptr inbounds nuw i8, ptr %3, i64 8
  store i32 %9, ptr %10, align 4
  switch i32 %9, label %58 [
    i32 1179603009, label %11
    i32 -958998591, label %11
  ]

11:                                               ; preds = %8, %8
  %12 = add i32 %2, 4
  %13 = getelementptr inbounds nuw i8, ptr %3, i64 12
  %14 = load i32, ptr %13, align 4
  %15 = tail call i32 @tvb_get_uint32(ptr noundef %0, i32 noundef %12, i32 noundef %14)
  %16 = add i32 %2, 8
  %17 = load i32, ptr %13, align 4
  %18 = tail call i32 @tvb_get_uint32(ptr noundef %0, i32 noundef %16, i32 noundef %17)
  %.not = icmp eq i32 %18, 0
  br i1 %.not, label %58, label %19

19:                                               ; preds = %11
  %20 = tail call i32 @tvb_reported_length_remaining(ptr noundef %0, i32 noundef %2)
  %.not59 = icmp slt i32 %20, %18
  br i1 %.not59, label %58, label %21

21:                                               ; preds = %19
  %22 = load i32, ptr @ett_mq_fopa, align 4
  %23 = tail call ptr @proto_tree_add_subtree(ptr noundef %1, ptr noundef %0, i32 noundef %2, i32 noundef %18, i32 noundef %22, ptr noundef null, ptr noundef nonnull @.str.1895)
  %24 = load i32, ptr @hf_mq_fopa_StructID, align 4
  %25 = getelementptr inbounds nuw i8, ptr %3, i64 16
  %26 = load i32, ptr %25, align 4
  %27 = tail call ptr @proto_tree_add_item(ptr noundef %23, i32 noundef %24, ptr noundef %0, i32 noundef %2, i32 noundef 4, i32 noundef %26)
  %28 = load i32, ptr @hf_mq_fopa_version, align 4
  %29 = load i32, ptr %13, align 4
  %30 = tail call ptr @proto_tree_add_item(ptr noundef %23, i32 noundef %28, ptr noundef %0, i32 noundef %12, i32 noundef 4, i32 noundef %29)
  %31 = load i32, ptr @hf_mq_fopa_length, align 4
  %32 = load i32, ptr %13, align 4
  %33 = tail call ptr @proto_tree_add_item(ptr noundef %23, i32 noundef %31, ptr noundef %0, i32 noundef %16, i32 noundef 4, i32 noundef %32)
  %34 = load i32, ptr @hf_mq_fopa_DefPersistence, align 4
  %35 = add i32 %2, 12
  %36 = load i32, ptr %13, align 4
  %37 = tail call ptr @proto_tree_add_item(ptr noundef %23, i32 noundef %34, ptr noundef %0, i32 noundef %35, i32 noundef 4, i32 noundef %36)
  %38 = load i32, ptr @hf_mq_fopa_DefPutRespType, align 4
  %39 = add i32 %2, 16
  %40 = load i32, ptr %13, align 4
  %41 = tail call ptr @proto_tree_add_item(ptr noundef %23, i32 noundef %38, ptr noundef %0, i32 noundef %39, i32 noundef 4, i32 noundef %40)
  %42 = load i32, ptr @hf_mq_fopa_DefReadAhead, align 4
  %43 = add i32 %2, 20
  %44 = load i32, ptr %13, align 4
  %45 = tail call ptr @proto_tree_add_item(ptr noundef %23, i32 noundef %42, ptr noundef %0, i32 noundef %43, i32 noundef 4, i32 noundef %44)
  %46 = load i32, ptr @hf_mq_fopa_PropertyControl, align 4
  %47 = add i32 %2, 24
  %48 = load i32, ptr %13, align 4
  %49 = tail call ptr @proto_tree_add_item(ptr noundef %23, i32 noundef %46, ptr noundef %0, i32 noundef %47, i32 noundef 4, i32 noundef %48)
  %50 = icmp sgt i32 %15, 1
  %51 = icmp sgt i32 %18, 28
  %or.cond = and i1 %50, %51
  br i1 %or.cond, label %52, label %58

52:                                               ; preds = %21
  %53 = load i32, ptr @hf_mq_fopa_Unknown, align 4
  %54 = add i32 %2, 28
  %55 = add nsw i32 %18, -28
  %56 = load i32, ptr %13, align 4
  %57 = tail call ptr @proto_tree_add_item(ptr noundef %23, i32 noundef %53, ptr noundef %0, i32 noundef %54, i32 noundef %55, i32 noundef %56)
  br label %58

58:                                               ; preds = %.thread, %21, %52, %8, %11, %19
  %.0 = phi i32 [ %18, %19 ], [ 0, %11 ], [ 0, %8 ], [ %18, %52 ], [ %18, %21 ], [ 0, %.thread ]
  ret i32 %.0
}